target datalayout = "e-m:e-p270:32:32-p271:32:32-p272:64:64-i64:64-i128:128-f80:128-n8:16:32:64-S128"
target triple = "x86_64-unknown-linux-gnu"

%struct.mi_os_mem_config_s = type { i64, i64, i64, i8, i8, i8 }
%struct.mi_stats_s = type { %struct.mi_stat_count_s, %struct.mi_stat_count_s, %struct.mi_stat_count_s, %struct.mi_stat_count_s, %struct.mi_stat_count_s, %struct.mi_stat_count_s, %struct.mi_stat_count_s, %struct.mi_stat_count_s, %struct.mi_stat_count_s, %struct.mi_stat_count_s, %struct.mi_stat_count_s, %struct.mi_stat_count_s, %struct.mi_stat_count_s, %struct.mi_stat_count_s, %struct.mi_stat_count_s, %struct.mi_stat_counter_s, %struct.mi_stat_counter_s, %struct.mi_stat_counter_s, %struct.mi_stat_counter_s, %struct.mi_stat_counter_s, %struct.mi_stat_counter_s, %struct.mi_stat_counter_s, %struct.mi_stat_counter_s, %struct.mi_stat_counter_s, %struct.mi_stat_counter_s }
%struct.mi_stat_count_s = type { i64, i64, i64, i64 }
%struct.mi_stat_counter_s = type { i64, i64 }
%struct.mi_memid_s = type { %union.anon, i8, i8, i8, i32 }
%union.anon = type { %struct.mi_memid_os_info }
%struct.mi_memid_os_info = type { ptr, i64 }

@mi_os_mem_config = internal global %struct.mi_os_mem_config_s { i64 4096, i64 0, i64 4096, i8 1, i8 0, i8 1 }, align 8
@_mi_stats_main = external global %struct.mi_stats_s, align 64
@.str.7 = private unnamed_addr constant [111 x i8] c"unable to allocate OS memory (error: %d (0x%x), size: 0x%zx bytes, align: 0x%zx, commit: %d, allow large: %d)\0A\00", align 1

; Function Attrs: nounwind uwtable
define internal i64 @_mi_align_up(i64 noundef %sz, i64 noundef %alignment) #0 {
entry:
  %retval = alloca i64, align 8
  %sz.addr = alloca i64, align 8
  %alignment.addr = alloca i64, align 8
  %mask = alloca i64, align 8
  store i64 %sz, ptr %sz.addr, align 8
  store i64 %alignment, ptr %alignment.addr, align 8
  %0 = load i64, ptr %alignment.addr, align 8
  %sub = sub i64 %0, 1
  store i64 %sub, ptr %mask, align 8
  %1 = load i64, ptr %alignment.addr, align 8
  %2 = load i64, ptr %mask, align 8
  %and = and i64 %1, %2
  %cmp = icmp eq i64 %and, 0
  br i1 %cmp, label %if.then, label %if.else

if.then:                                          ; preds = %entry
  %3 = load i64, ptr %sz.addr, align 8
  %4 = load i64, ptr %mask, align 8
  %add = add i64 %3, %4
  %5 = load i64, ptr %mask, align 8
  %not = xor i64 %5, -1
  %and1 = and i64 %add, %not
  store i64 %and1, ptr %retval, align 8
  br label %return

if.else:                                          ; preds = %entry
  %6 = load i64, ptr %sz.addr, align 8
  %7 = load i64, ptr %mask, align 8
  %add2 = add i64 %6, %7
  %8 = load i64, ptr %alignment.addr, align 8
  %div = udiv i64 %add2, %8
  %9 = load i64, ptr %alignment.addr, align 8
  %mul = mul i64 %div, %9
  store i64 %mul, ptr %retval, align 8
  br label %return

return:                                           ; preds = %if.else, %if.then
  %10 = load i64, ptr %retval, align 8
  ret i64 %10
}

; Function Attrs: nounwind uwtable
define hidden i64 @_mi_os_page_size() #0 {
entry:
  %0 = load i64, ptr @mi_os_mem_config, align 8
  ret i64 %0
}

; Function Attrs: nounwind uwtable
define internal void @_mi_memid_create(ptr noalias sret(%struct.mi_memid_s) align 8 %agg.result, i32 noundef %memkind) #0 {
entry:
  %memkind.addr = alloca i32, align 4
  store i32 %memkind, ptr %memkind.addr, align 4
  call void @llvm.memset.p0.i64(ptr align 8 %agg.result, i8 0, i64 24, i1 false)
  %0 = load i32, ptr %memkind.addr, align 4
  %memkind1 = getelementptr inbounds %struct.mi_memid_s, ptr %agg.result, i32 0, i32 4
  store i32 %0, ptr %memkind1, align 4
  ret void
}

; Function Attrs: nounwind uwtable
define internal void @_mi_memid_create_os(ptr noalias sret(%struct.mi_memid_s) align 8 %agg.result, i1 noundef zeroext %committed, i1 noundef zeroext %is_zero, i1 noundef zeroext %is_large) #0 {
entry:
  %committed.addr = alloca i8, align 1
  %is_zero.addr = alloca i8, align 1
  %is_large.addr = alloca i8, align 1
  %frombool = zext i1 %committed to i8
  store i8 %frombool, ptr %committed.addr, align 1
  %frombool1 = zext i1 %is_zero to i8
  store i8 %frombool1, ptr %is_zero.addr, align 1
  %frombool2 = zext i1 %is_large to i8
  store i8 %frombool2, ptr %is_large.addr, align 1
  call void @_mi_memid_create(ptr sret(%struct.mi_memid_s) align 8 %agg.result, i32 noundef 3) #5
  %0 = load i8, ptr %committed.addr, align 1
  %tobool = trunc i8 %0 to i1
  %initially_committed = getelementptr inbounds %struct.mi_memid_s, ptr %agg.result, i32 0, i32 2
  %frombool3 = zext i1 %tobool to i8
  store i8 %frombool3, ptr %initially_committed, align 1
  %1 = load i8, ptr %is_zero.addr, align 1
  %tobool4 = trunc i8 %1 to i1
  %initially_zero = getelementptr inbounds %struct.mi_memid_s, ptr %agg.result, i32 0, i32 3
  %frombool5 = zext i1 %tobool4 to i8
  store i8 %frombool5, ptr %initially_zero, align 2
  %2 = load i8, ptr %is_large.addr, align 1
  %tobool6 = trunc i8 %2 to i1
  %is_pinned = getelementptr inbounds %struct.mi_memid_s, ptr %agg.result, i32 0, i32 1
  %frombool7 = zext i1 %tobool6 to i8
  store i8 %frombool7, ptr %is_pinned, align 8
  ret void
}

; Function Attrs: nounwind uwtable
define internal ptr @mi_os_prim_alloc(i64 noundef %size, i64 noundef %try_alignment, i1 noundef zeroext %commit, i1 noundef zeroext %allow_large, ptr noundef %is_large, ptr noundef %is_zero, ptr noundef %stats) #0 {
entry:
  %retval = alloca ptr, align 8
  %size.addr = alloca i64, align 8
  %try_alignment.addr = alloca i64, align 8
  %commit.addr = alloca i8, align 1
  %allow_large.addr = alloca i8, align 1
  %is_large.addr = alloca ptr, align 8
  %is_zero.addr = alloca ptr, align 8
  %stats.addr = alloca ptr, align 8
  %p = alloca ptr, align 8
  %err = alloca i32, align 4
  store i64 %size, ptr %size.addr, align 8
  store i64 %try_alignment, ptr %try_alignment.addr, align 8
  %frombool = zext i1 %commit to i8
  store i8 %frombool, ptr %commit.addr, align 1
  %frombool1 = zext i1 %allow_large to i8
  store i8 %frombool1, ptr %allow_large.addr, align 1
  store ptr %is_large, ptr %is_large.addr, align 8
  store ptr %is_zero, ptr %is_zero.addr, align 8
  store ptr %stats, ptr %stats.addr, align 8
  %0 = load i64, ptr %size.addr, align 8
  %cmp = icmp eq i64 %0, 0
  br i1 %cmp, label %if.then, label %if.end

if.then:                                          ; preds = %entry
  store ptr null, ptr %retval, align 8
  br label %return

if.end:                                           ; preds = %entry
  %1 = load i8, ptr %commit.addr, align 1
  %tobool = trunc i8 %1 to i1
  br i1 %tobool, label %if.end3, label %if.then2

if.then2:                                         ; preds = %if.end
  store i8 0, ptr %allow_large.addr, align 1
  br label %if.end3

if.end3:                                          ; preds = %if.then2, %if.end
  %2 = load i64, ptr %try_alignment.addr, align 8
  %cmp4 = icmp eq i64 %2, 0
  br i1 %cmp4, label %if.then5, label %if.end6

if.then5:                                         ; preds = %if.end3
  store i64 1, ptr %try_alignment.addr, align 8
  br label %if.end6

if.end6:                                          ; preds = %if.then5, %if.end3
  %3 = load ptr, ptr %is_zero.addr, align 8
  store i8 0, ptr %3, align 1
  store ptr null, ptr %p, align 8
  %4 = load i64, ptr %size.addr, align 8
  %5 = load i64, ptr %try_alignment.addr, align 8
  %6 = load i8, ptr %commit.addr, align 1
  %tobool7 = trunc i8 %6 to i1
  %7 = load i8, ptr %allow_large.addr, align 1
  %tobool8 = trunc i8 %7 to i1
  %8 = load ptr, ptr %is_large.addr, align 8
  %9 = load ptr, ptr %is_zero.addr, align 8
  %call = call i32 @_mi_prim_alloc(i64 noundef %4, i64 noundef %5, i1 noundef zeroext %tobool7, i1 noundef zeroext %tobool8, ptr noundef %8, ptr noundef %9, ptr noundef %p) #5
  store i32 %call, ptr %err, align 4
  %10 = load i32, ptr %err, align 4
  %cmp9 = icmp ne i32 %10, 0
  br i1 %cmp9, label %if.then10, label %if.end14

if.then10:                                        ; preds = %if.end6
  %11 = load i32, ptr %err, align 4
  %12 = load i32, ptr %err, align 4
  %13 = load i64, ptr %size.addr, align 8
  %14 = load i64, ptr %try_alignment.addr, align 8
  %15 = load i8, ptr %commit.addr, align 1
  %tobool11 = trunc i8 %15 to i1
  %conv = zext i1 %tobool11 to i32
  %16 = load i8, ptr %allow_large.addr, align 1
  %tobool12 = trunc i8 %16 to i1
  %conv13 = zext i1 %tobool12 to i32
  call void (ptr, ...) @_mi_warning_message(ptr noundef @.str.7, i32 noundef %11, i32 noundef %12, i64 noundef %13, i64 noundef %14, i32 noundef %conv, i32 noundef %conv13) #5
  br label %if.end14

if.end14:                                         ; preds = %if.then10, %if.end6
  %17 = load ptr, ptr %p, align 8
  %cmp15 = icmp ne ptr %17, null
  br i1 %cmp15, label %if.then17, label %if.end21

if.then17:                                        ; preds = %if.end14
  %18 = load ptr, ptr %stats.addr, align 8
  %reserved = getelementptr inbounds %struct.mi_stats_s, ptr %18, i32 0, i32 2
  %19 = load i64, ptr %size.addr, align 8
  call void @_mi_stat_increase(ptr noundef %reserved, i64 noundef %19) #5
  %20 = load i8, ptr %commit.addr, align 1
  %tobool18 = trunc i8 %20 to i1
  br i1 %tobool18, label %if.then19, label %if.end20

if.then19:                                        ; preds = %if.then17
  %21 = load ptr, ptr %stats.addr, align 8
  %committed = getelementptr inbounds %struct.mi_stats_s, ptr %21, i32 0, i32 3
  %22 = load i64, ptr %size.addr, align 8
  call void @_mi_stat_increase(ptr noundef %committed, i64 noundef %22) #5
  br label %if.end20

if.end20:                                         ; preds = %if.then19, %if.then17
  br label %if.end21

if.end21:                                         ; preds = %if.end20, %if.end14
  %23 = load ptr, ptr %p, align 8
  store ptr %23, ptr %retval, align 8
  br label %return

return:                                           ; preds = %if.end21, %if.then
  %24 = load ptr, ptr %retval, align 8
  ret ptr %24
}

; Function Attrs: nounwind uwtable
define hidden i64 @_mi_os_good_alloc_size(i64 noundef %size) #0 {
entry:
  %retval = alloca i64, align 8
  %size.addr = alloca i64, align 8
  %align_size = alloca i64, align 8
  store i64 %size, ptr %size.addr, align 8
  %0 = load i64, ptr %size.addr, align 8
  %cmp = icmp ult i64 %0, 524288
  br i1 %cmp, label %if.then, label %if.else

if.then:                                          ; preds = %entry
  %call = call i64 @_mi_os_page_size() #5
  store i64 %call, ptr %align_size, align 8
  br label %if.end12

if.else:                                          ; preds = %entry
  %1 = load i64, ptr %size.addr, align 8
  %cmp1 = icmp ult i64 %1, 2097152
  br i1 %cmp1, label %if.then2, label %if.else3

if.then2:                                         ; preds = %if.else
  store i64 65536, ptr %align_size, align 8
  br label %if.end11

if.else3:                                         ; preds = %if.else
  %2 = load i64, ptr %size.addr, align 8
  %cmp4 = icmp ult i64 %2, 8388608
  br i1 %cmp4, label %if.then5, label %if.else6

if.then5:                                         ; preds = %if.else3
  store i64 262144, ptr %align_size, align 8
  br label %if.end10

if.else6:                                         ; preds = %if.else3
  %3 = load i64, ptr %size.addr, align 8
  %cmp7 = icmp ult i64 %3, 33554432
  br i1 %cmp7, label %if.then8, label %if.else9

if.then8:                                         ; preds = %if.else6
  store i64 1048576, ptr %align_size, align 8
  br label %if.end

if.else9:                                         ; preds = %if.else6
  store i64 4194304, ptr %align_size, align 8
  br label %if.end

if.end:                                           ; preds = %if.else9, %if.then8
  br label %if.end10

if.end10:                                         ; preds = %if.end, %if.then5
  br label %if.end11

if.end11:                                         ; preds = %if.end10, %if.then2
  br label %if.end12

if.end12:                                         ; preds = %if.end11, %if.then
  %4 = load i64, ptr %size.addr, align 8
  %5 = load i64, ptr %align_size, align 8
  %sub = sub i64 -1, %5
  %cmp13 = icmp uge i64 %4, %sub
  %lnot = xor i1 %cmp13, true
  %lnot14 = xor i1 %lnot, true
  %lnot.ext = zext i1 %lnot14 to i32
  %conv = sext i32 %lnot.ext to i64
  %tobool = icmp ne i64 %conv, 0
  br i1 %tobool, label %if.then15, label %if.end16

if.then15:                                        ; preds = %if.end12
  %6 = load i64, ptr %size.addr, align 8
  store i64 %6, ptr %retval, align 8
  br label %return

if.end16:                                         ; preds = %if.end12
  %7 = load i64, ptr %size.addr, align 8
  %8 = load i64, ptr %align_size, align 8
  %call17 = call i64 @_mi_align_up(i64 noundef %7, i64 noundef %8) #5
  store i64 %call17, ptr %retval, align 8
  br label %return

return:                                           ; preds = %if.end16, %if.then15
  %9 = load i64, ptr %retval, align 8
  ret i64 %9
}

; Function Attrs: nounwind uwtable
define internal void @_mi_memid_none(ptr noalias sret(%struct.mi_memid_s) align 8 %agg.result) #0 {
entry:
  call void @_mi_memid_create(ptr sret(%struct.mi_memid_s) align 8 %agg.result, i32 noundef 0) #5
  ret void
}

; Function Attrs: nounwind uwtable
define hidden ptr @_mi_os_alloc(i64 noundef %size, ptr noundef %memid, ptr noundef %tld_stats) #0 {
entry:
  %retval = alloca ptr, align 8
  %size.addr = alloca i64, align 8
  %memid.addr = alloca ptr, align 8
  %tld_stats.addr = alloca ptr, align 8
  %tmp = alloca %struct.mi_memid_s, align 8
  %stats = alloca ptr, align 8
  %os_is_large = alloca i8, align 1
  %os_is_zero = alloca i8, align 1
  %p = alloca ptr, align 8
  %tmp4 = alloca %struct.mi_memid_s, align 8
  store i64 %size, ptr %size.addr, align 8
  store ptr %memid, ptr %memid.addr, align 8
  store ptr %tld_stats, ptr %tld_stats.addr, align 8
  %0 = load ptr, ptr %memid.addr, align 8
  call void @_mi_memid_none(ptr sret(%struct.mi_memid_s) align 8 %tmp) #5
  call void @llvm.memcpy.p0.p0.i64(ptr align 8 %0, ptr align 8 %tmp, i64 24, i1 false)
  store ptr @_mi_stats_main, ptr %stats, align 8
  %1 = load i64, ptr %size.addr, align 8
  %cmp = icmp eq i64 %1, 0
  br i1 %cmp, label %if.then, label %if.end

if.then:                                          ; preds = %entry
  store ptr null, ptr %retval, align 8
  br label %return

if.end:                                           ; preds = %entry
  %2 = load i64, ptr %size.addr, align 8
  %call = call i64 @_mi_os_good_alloc_size(i64 noundef %2) #5
  store i64 %call, ptr %size.addr, align 8
  store i8 0, ptr %os_is_large, align 1
  store i8 0, ptr %os_is_zero, align 1
  %3 = load i64, ptr %size.addr, align 8
  %4 = load ptr, ptr %stats, align 8
  %call1 = call ptr @mi_os_prim_alloc(i64 noundef %3, i64 noundef 0, i1 noundef zeroext true, i1 noundef zeroext false, ptr noundef %os_is_large, ptr noundef %os_is_zero, ptr noundef %4) #5
  store ptr %call1, ptr %p, align 8
  %5 = load ptr, ptr %p, align 8
  %cmp2 = icmp ne ptr %5, null
  br i1 %cmp2, label %if.then3, label %if.end6

if.then3:                                         ; preds = %if.end
  %6 = load ptr, ptr %memid.addr, align 8
  %7 = load i8, ptr %os_is_zero, align 1
  %tobool = trunc i8 %7 to i1
  %8 = load i8, ptr %os_is_large, align 1
  %tobool5 = trunc i8 %8 to i1
  call void @_mi_memid_create_os(ptr sret(%struct.mi_memid_s) align 8 %tmp4, i1 noundef zeroext true, i1 noundef zeroext %tobool, i1 noundef zeroext %tobool5) #5
  call void @llvm.memcpy.p0.p0.i64(ptr align 8 %6, ptr align 8 %tmp4, i64 24, i1 false)
  br label %if.end6

if.end6:                                          ; preds = %if.then3, %if.end
  %9 = load ptr, ptr %p, align 8
  store ptr %9, ptr %retval, align 8
  br label %return

return:                                           ; preds = %if.end6, %if.then
  %10 = load ptr, ptr %retval, align 8
  ret ptr %10
}