; Function Attrs: nounwind uwtable
define hidden ptr @_mi_os_alloc(i64 noundef %size, ptr noundef writeonly captures(none) initializes((0, 24)) %memid, ptr noundef readnone captures(none) %tld_stats) local_unnamed_addr #1 {
entry:
  %p.i = alloca ptr, align 8
  %os_is_large = alloca i8, align 1
  %os_is_zero = alloca i8, align 1
  tail call void @llvm.memset.p0.i64(ptr noundef nonnull align 8 dereferenceable(24) %memid, i8 0, i64 24, i1 false)
  %cmp = icmp eq i64 %size, 0
  br i1 %cmp, label %return, label %if.end

if.end:                                           ; preds = %entry
  %cmp.i = icmp ult i64 %size, 524288
  br i1 %cmp.i, label %if.then.i, label %if.else.i

if.then.i:                                        ; preds = %if.end
  %0 = load i64, ptr @mi_os_mem_config, align 8
  br label %if.end12.i

if.else.i:                                        ; preds = %if.end
  %cmp1.i = icmp ult i64 %size, 2097152
  br i1 %cmp1.i, label %if.end12.i, label %if.else3.i

if.else3.i:                                       ; preds = %if.else.i
  %cmp4.i = icmp ult i64 %size, 8388608
  br i1 %cmp4.i, label %if.end12.i, label %if.else6.i

if.else6.i:                                       ; preds = %if.else3.i
  %cmp7.i = icmp ult i64 %size, 33554432
  %..i = select i1 %cmp7.i, i64 1048576, i64 4194304
  br label %if.end12.i

if.end12.i:                                       ; preds = %if.else6.i, %if.else3.i, %if.else.i, %if.then.i
  %align_size.0.i = phi i64 [ %0, %if.then.i ], [ 65536, %if.else.i ], [ 262144, %if.else3.i ], [ %..i, %if.else6.i ]
  %sub.i = xor i64 %align_size.0.i, -1
  %cmp13.not.i = icmp ult i64 %size, %sub.i
  br i1 %cmp13.not.i, label %if.end16.i, label %_mi_os_good_alloc_size.exit.thread

_mi_os_good_alloc_size.exit.thread:               ; preds = %if.end12.i
  store i8 0, ptr %os_is_large, align 1
  call void @llvm.lifetime.start.p0(i64 8, ptr nonnull %p.i)
  br label %if.end.i

if.end16.i:                                       ; preds = %if.end12.i
  %1 = tail call range(i64 0, 65) i64 @llvm.ctpop.i64(i64 %align_size.0.i)
  %cmp.i.i = icmp samesign ult i64 %1, 2
  %sub.i.i = add i64 %size, -1
  %add.i.i = add i64 %sub.i.i, %align_size.0.i
  br i1 %cmp.i.i, label %if.then.i.i, label %if.else.i.i

if.then.i.i:                                      ; preds = %if.end16.i
  %not.i.i = sub i64 0, %align_size.0.i
  %and1.i.i = and i64 %add.i.i, %not.i.i
  br label %_mi_os_good_alloc_size.exit

if.else.i.i:                                      ; preds = %if.end16.i
  %2 = urem i64 %add.i.i, %align_size.0.i
  %mul.i.i = sub nuw i64 %add.i.i, %2
  br label %_mi_os_good_alloc_size.exit

_mi_os_good_alloc_size.exit:                      ; preds = %if.then.i.i, %if.else.i.i
  %retval.0.i = phi i64 [ %and1.i.i, %if.then.i.i ], [ %mul.i.i, %if.else.i.i ]
  store i8 0, ptr %os_is_large, align 1
  call void @llvm.lifetime.start.p0(i64 8, ptr nonnull %p.i)
  %cmp.i5 = icmp eq i64 %retval.0.i, 0
  br i1 %cmp.i5, label %mi_os_prim_alloc.exit.thread, label %if.end.i

mi_os_prim_alloc.exit.thread:                     ; preds = %_mi_os_good_alloc_size.exit
  call void @llvm.lifetime.end.p0(i64 8, ptr nonnull %p.i)
  br label %return

if.end.i:                                         ; preds = %_mi_os_good_alloc_size.exit.thread, %_mi_os_good_alloc_size.exit
  %retval.0.i10 = phi i64 [ %size, %_mi_os_good_alloc_size.exit.thread ], [ %retval.0.i, %_mi_os_good_alloc_size.exit ]
  store i8 0, ptr %os_is_zero, align 1
  store ptr null, ptr %p.i, align 8
  %call.i = call i32 @_mi_prim_alloc(i64 noundef %retval.0.i10, i64 noundef 1, i1 noundef zeroext true, i1 noundef zeroext false, ptr noundef nonnull %os_is_large, ptr noundef nonnull %os_is_zero, ptr noundef nonnull %p.i) #7
  %cmp9.not.i = icmp eq i32 %call.i, 0
  br i1 %cmp9.not.i, label %if.end14.i, label %if.then10.i

if.then10.i:                                      ; preds = %if.end.i
  call void (ptr, ...) @_mi_warning_message(ptr noundef nonnull @.str.7, i32 noundef %call.i, i32 noundef %call.i, i64 noundef %retval.0.i10, i64 noundef 1, i32 noundef 1, i32 noundef 0) #7
  br label %if.end14.i

if.end14.i:                                       ; preds = %if.then10.i, %if.end.i
  %3 = load ptr, ptr %p.i, align 8
  %cmp15.not.i = icmp eq ptr %3, null
  br i1 %cmp15.not.i, label %mi_os_prim_alloc.exit.thread13, label %mi_os_prim_alloc.exit

mi_os_prim_alloc.exit.thread13:                   ; preds = %if.end14.i
  call void @llvm.lifetime.end.p0(i64 8, ptr nonnull %p.i)
  br label %return

mi_os_prim_alloc.exit:                            ; preds = %if.end14.i
  call void @_mi_stat_increase(ptr noundef nonnull getelementptr inbounds nuw (i8, ptr @_mi_stats_main, i64 64), i64 noundef %retval.0.i10) #7
  call void @_mi_stat_increase(ptr noundef nonnull getelementptr inbounds nuw (i8, ptr @_mi_stats_main, i64 96), i64 noundef %retval.0.i10) #7
  %.pr = load ptr, ptr %p.i, align 8
  call void @llvm.lifetime.end.p0(i64 8, ptr nonnull %p.i)
  %cmp2.not = icmp eq ptr %.pr, null
  br i1 %cmp2.not, label %return, label %if.then3

if.then3:                                         ; preds = %mi_os_prim_alloc.exit
  %4 = load i8, ptr %os_is_zero, align 1
  %5 = load i8, ptr %os_is_large, align 1
  %frombool1.i = and i8 %4, 1
  %frombool2.i = and i8 %5, 1
  call void @llvm.memset.p0.i64(ptr noundef nonnull align 8 dereferenceable(16) %memid, i8 0, i64 16, i1 false)
  %tmp4.sroa.2.0.memid.sroa_idx = getelementptr inbounds nuw i8, ptr %memid, i64 16
  store i8 %frombool2.i, ptr %tmp4.sroa.2.0.memid.sroa_idx, align 8
  %tmp4.sroa.3.0.memid.sroa_idx = getelementptr inbounds nuw i8, ptr %memid, i64 17
  store i8 1, ptr %tmp4.sroa.3.0.memid.sroa_idx, align 1
  %tmp4.sroa.4.0.memid.sroa_idx = getelementptr inbounds nuw i8, ptr %memid, i64 18
  store i8 %frombool1.i, ptr %tmp4.sroa.4.0.memid.sroa_idx, align 2
  %tmp4.sroa.5.0.memid.sroa_idx = getelementptr inbounds nuw i8, ptr %memid, i64 19
  store i8 0, ptr %tmp4.sroa.5.0.memid.sroa_idx, align 1
  %tmp4.sroa.57.0.memid.sroa_idx = getelementptr inbounds nuw i8, ptr %memid, i64 20
  store i32 3, ptr %tmp4.sroa.57.0.memid.sroa_idx, align 4
  br label %return

return:                                           ; preds = %mi_os_prim_alloc.exit.thread13, %mi_os_prim_alloc.exit.thread, %mi_os_prim_alloc.exit, %if.then3, %entry
  %retval.0 = phi ptr [ null, %entry ], [ %.pr, %if.then3 ], [ null, %mi_os_prim_alloc.exit ], [ null, %mi_os_prim_alloc.exit.thread ], [ null, %mi_os_prim_alloc.exit.thread13 ]
  ret ptr %retval.0
}